target datalayout = "e-m:e-p270:32:32-p271:32:32-p272:64:64-i64:64-i128:128-f80:128-n8:16:32:64-S128"
target triple = "x86_64-pc-linux-gnu"

%struct.DdManager = type { %struct.DdNode, ptr, ptr, ptr, ptr, ptr, ptr, ptr, i32, i32, double, double, double, i32, i32, i32, i32, i32, i32, ptr, ptr, %struct.DdSubtable, i32, i32, i32, i32, i32, i32, i32, double, i32, i32, i32, ptr, i64, double, i32, ptr, ptr, ptr, ptr, ptr, ptr, ptr, i32, ptr, ptr, ptr, ptr, ptr, ptr, i32, i32, i32, double, i32, i32, i32, i32, double, double, i32, i32, i32, i32, i32, i32, i32, i32, i32, ptr, ptr, i32, i32, i32, i32, i32, i32, ptr, ptr, ptr, ptr, ptr, ptr, ptr, ptr, i32, i64, i64, i64, i32, i64, i64, double, double, double, double, double, double, i32, ptr, ptr, i64 }
%struct.DdNode = type { i32, i32, ptr, %union.anon, i64 }
%union.anon = type { %struct.DdChildren }
%struct.DdChildren = type { ptr, ptr }
%struct.DdSubtable = type { ptr, i32, i32, i32, i32, i32, i32, i32, i32, i32, i32, i32 }

; Function Attrs: nounwind uwtable
define ptr @Cudd_VectorSupportIndex(ptr noundef %0, ptr noundef %1, i32 noundef %2) #0 {
  %4 = alloca ptr, align 8
  %5 = alloca ptr, align 8
  %6 = alloca ptr, align 8
  %7 = alloca i32, align 4
  %8 = alloca ptr, align 8
  %9 = alloca i32, align 4
  %10 = alloca i32, align 4
  store ptr %0, ptr %5, align 8
  store ptr %1, ptr %6, align 8
  store i32 %2, ptr %7, align 4
  %11 = load ptr, ptr %5, align 8
  %12 = getelementptr inbounds %struct.DdManager, ptr %11, i32 0, i32 16
  %13 = load i32, ptr %12, align 4
  %14 = load ptr, ptr %5, align 8
  %15 = getelementptr inbounds %struct.DdManager, ptr %14, i32 0, i32 15
  %16 = load i32, ptr %15, align 8
  %17 = icmp sgt i32 %13, %16
  br i1 %17, label %18, label %22

18:                                               ; preds = %3
  %19 = load ptr, ptr %5, align 8
  %20 = getelementptr inbounds %struct.DdManager, ptr %19, i32 0, i32 16
  %21 = load i32, ptr %20, align 4
  br label %26

22:                                               ; preds = %3
  %23 = load ptr, ptr %5, align 8
  %24 = getelementptr inbounds %struct.DdManager, ptr %23, i32 0, i32 15
  %25 = load i32, ptr %24, align 8
  br label %26

26:                                               ; preds = %22, %18
  %27 = phi i32 [ %21, %18 ], [ %25, %22 ]
  store i32 %27, ptr %10, align 4
  %28 = load i32, ptr %10, align 4
  %29 = sext i32 %28 to i64
  %30 = mul i64 4, %29
  %31 = call noalias ptr @malloc(i64 noundef %30) #5
  store ptr %31, ptr %8, align 8
  %32 = load ptr, ptr %8, align 8
  %33 = icmp eq ptr %32, null
  br i1 %33, label %34, label %37

34:                                               ; preds = %26
  %35 = load ptr, ptr %5, align 8
  %36 = getelementptr inbounds %struct.DdManager, ptr %35, i32 0, i32 86
  store i32 1, ptr %36, align 8
  store ptr null, ptr %4, align 8
  br label %87

37:                                               ; preds = %26
  store i32 0, ptr %9, align 4
  br label %38

38:                                               ; preds = %47, %37
  %39 = load i32, ptr %9, align 4
  %40 = load i32, ptr %10, align 4
  %41 = icmp slt i32 %39, %40
  br i1 %41, label %42, label %50

42:                                               ; preds = %38
  %43 = load ptr, ptr %8, align 8
  %44 = load i32, ptr %9, align 4
  %45 = sext i32 %44 to i64
  %46 = getelementptr inbounds i32, ptr %43, i64 %45
  store i32 0, ptr %46, align 4
  br label %47

47:                                               ; preds = %42
  %48 = load i32, ptr %9, align 4
  %49 = add nsw i32 %48, 1
  store i32 %49, ptr %9, align 4
  br label %38, !llvm.loop !23

50:                                               ; preds = %38
  store i32 0, ptr %9, align 4
  br label %51

51:                                               ; preds = %65, %50
  %52 = load i32, ptr %9, align 4
  %53 = load i32, ptr %7, align 4
  %54 = icmp slt i32 %52, %53
  br i1 %54, label %55, label %68

55:                                               ; preds = %51
  %56 = load ptr, ptr %6, align 8
  %57 = load i32, ptr %9, align 4
  %58 = sext i32 %57 to i64
  %59 = getelementptr inbounds ptr, ptr %56, i64 %58
  %60 = load ptr, ptr %59, align 8
  %61 = ptrtoint ptr %60 to i64
  %62 = and i64 %61, -2
  %63 = inttoptr i64 %62 to ptr
  %64 = load ptr, ptr %8, align 8
  call void @ddSupportStep(ptr noundef %63, ptr noundef %64)
  br label %65

65:                                               ; preds = %55
  %66 = load i32, ptr %9, align 4
  %67 = add nsw i32 %66, 1
  store i32 %67, ptr %9, align 4
  br label %51, !llvm.loop !24

68:                                               ; preds = %51
  store i32 0, ptr %9, align 4
  br label %69

69:                                               ; preds = %82, %68
  %70 = load i32, ptr %9, align 4
  %71 = load i32, ptr %7, align 4
  %72 = icmp slt i32 %70, %71
  br i1 %72, label %73, label %85

73:                                               ; preds = %69
  %74 = load ptr, ptr %6, align 8
  %75 = load i32, ptr %9, align 4
  %76 = sext i32 %75 to i64
  %77 = getelementptr inbounds ptr, ptr %74, i64 %76
  %78 = load ptr, ptr %77, align 8
  %79 = ptrtoint ptr %78 to i64
  %80 = and i64 %79, -2
  %81 = inttoptr i64 %80 to ptr
  call void @ddClearFlag(ptr noundef %81)
  br label %82

82:                                               ; preds = %73
  %83 = load i32, ptr %9, align 4
  %84 = add nsw i32 %83, 1
  store i32 %84, ptr %9, align 4
  br label %69, !llvm.loop !25

85:                                               ; preds = %69
  %86 = load ptr, ptr %8, align 8
  store ptr %86, ptr %4, align 8
  br label %87

87:                                               ; preds = %85, %34
  %88 = load ptr, ptr %4, align 8
  ret ptr %88
}