; Function Attrs: nofree nounwind uwtable
define noundef ptr @Cudd_VectorSupportIndex(ptr noundef captures(none) %0, ptr noundef readonly captures(none) %1, i32 noundef %2) local_unnamed_addr #2 {
  %4 = getelementptr inbounds nuw i8, ptr %0, i64 140
  %5 = load i32, ptr %4, align 4
  %6 = getelementptr inbounds nuw i8, ptr %0, i64 136
  %7 = load i32, ptr %6, align 8
  %. = tail call i32 @llvm.smax.i32(i32 %5, i32 %7)
  %8 = sext i32 %. to i64
  %9 = shl nsw i64 %8, 2
  %10 = tail call noalias ptr @malloc(i64 noundef %9) #22
  %11 = icmp eq ptr %10, null
  br i1 %11, label %15, label %.preheader30

.preheader30:                                     ; preds = %3
  %12 = icmp sgt i32 %., 0
  br i1 %12, label %.lr.ph.preheader, label %.preheader29

.lr.ph.preheader:                                 ; preds = %.preheader30
  %13 = zext nneg i32 %. to i64
  %14 = shl nuw nsw i64 %13, 2
  tail call void @llvm.memset.p0.i64(ptr nonnull align 4 %10, i8 0, i64 %14, i1 false)
  br label %.preheader29

15:                                               ; preds = %3
  %16 = getelementptr inbounds nuw i8, ptr %0, i64 624
  store i32 1, ptr %16, align 8
  br label %.loopexit

.preheader29:                                     ; preds = %.lr.ph.preheader, %.preheader30
  %17 = icmp sgt i32 %2, 0
  br i1 %17, label %.lr.ph33.preheader, label %.loopexit

.lr.ph33.preheader:                               ; preds = %.preheader29
  %wide.trip.count = zext nneg i32 %2 to i64
  br label %.lr.ph33

.lr.ph35.preheader:                               ; preds = %.lr.ph33
  %wide.trip.count41 = zext nneg i32 %2 to i64
  br label %.lr.ph35

.lr.ph33:                                         ; preds = %.lr.ph33.preheader, %.lr.ph33
  %indvars.iv = phi i64 [ 0, %.lr.ph33.preheader ], [ %indvars.iv.next, %.lr.ph33 ]
  %18 = getelementptr inbounds nuw ptr, ptr %1, i64 %indvars.iv
  %19 = load ptr, ptr %18, align 8
  %20 = ptrtoint ptr %19 to i64
  %21 = and i64 %20, -2
  %22 = inttoptr i64 %21 to ptr
  tail call fastcc void @ddSupportStep(ptr noundef %22, ptr noundef %10)
  %indvars.iv.next = add nuw nsw i64 %indvars.iv, 1
  %exitcond.not = icmp eq i64 %indvars.iv.next, %wide.trip.count
  br i1 %exitcond.not, label %.lr.ph35.preheader, label %.lr.ph33, !llvm.loop !21

.lr.ph35:                                         ; preds = %.lr.ph35.preheader, %.lr.ph35
  %indvars.iv38 = phi i64 [ 0, %.lr.ph35.preheader ], [ %indvars.iv.next39, %.lr.ph35 ]
  %23 = getelementptr inbounds nuw ptr, ptr %1, i64 %indvars.iv38
  %24 = load ptr, ptr %23, align 8
  %25 = ptrtoint ptr %24 to i64
  %26 = and i64 %25, -2
  %27 = inttoptr i64 %26 to ptr
  tail call fastcc void @ddClearFlag(ptr noundef %27)
  %indvars.iv.next39 = add nuw nsw i64 %indvars.iv38, 1
  %exitcond42.not = icmp eq i64 %indvars.iv.next39, %wide.trip.count41
  br i1 %exitcond42.not, label %.loopexit, label %.lr.ph35, !llvm.loop !22

.loopexit:                                        ; preds = %.lr.ph35, %.preheader29, %15
  ret ptr %10
}